(iinfrastructure.contracts.drivercontext
ResourceCommandContext
p0
(dp1
S'connectivity'
p2
(iinfrastructure.contracts.drivercontext
ConnectivityContext
p3
(dp4
S'quali_api_port'
p5
S'9000'
p6
sS'cloudshell_api_scheme'
p7
S'http'
p8
sS'server_address'
p9
S'localhost'
p10
sS'cloudshell_api_port'
p11
S'8029'
p12
sS'admin_auth_token'
p13
S'fJJKhpnOm0Wa0W/Gk3SZBA=='
p14
sS'cloudshell_version'
p15
S'8.3'
p16
sbsS'connectors'
p17
(lp18
sS'resource'
p19
(iinfrastructure.contracts.drivercontext
ResourceContextDetails
p20
(dp21
S'name'
p22
S'test'
p23
sS'family'
p24
S'Cloud Provider'
p25
sS'networks_info'
p26
NsS'app_context'
p27
(iinfrastructure.contracts.drivercontext
AppContext
p28
(dp29
S'app_request_json'
p30
S''
p31
sS'deployed_app_json'
p32
g31
sbsS'id'
p33
S'828ebcc9-8a5b-4d95-b506-4b04087c6b73'
p34
sS'shell_standard_version'
p35
NsS'address'
p36
S'NA'
p37
sS'shell_standard'
p38
NsS'attributes'
p39
(dp40
S'Service Account Username'
p41
S'un'
p42
sS'Private Access Key'
p43
S'VnPDSGjVWAmVRty2YvW9+g=='
p44
sS'Public Access Key'
p45
S'pub'
p46
ssS'model'
p47
S'Kubernetes'
p48
sS'type'
p49
S'Resource'
p50
sS'fullname'
p51
S'test'
p52
sS'description'
p53
NsbsS'reservation'
p54
(iinfrastructure.contracts.drivercontext
ReservationContextDetails
p55
(dp56
S'domain'
p57
S'Global'
p58
sS'owner_email'
p59
Nsg53
S'Blueprint with preconfigured setup & teardown processes.Deploys Apps and resolves connections on Setup, and deletes App VMs on Teardown'
p60
sS'environment_name'
p61
S'CloudShell Sandbox Template'
p62
sS'environment_path'
p63
S'CloudShell Sandbox Template'
p64
sS'owner_user'
p65
S'admin'
p66
sS'reservation_id'
p67
S'9e542ef3-1ff4-4f24-9489-ac6a19b7e9f9'
p68
sbsb.